; Function Attrs: mustprogress nofree norecurse nosync nounwind willreturn memory(readwrite, inaccessiblemem: none) uwtable
define void @_Z13dd_cycles_addPK12gmx_domdec_tfi(ptr noundef readonly captures(none) %0, float noundef %1, i32 noundef %2) local_unnamed_addr #16 {
  %4 = getelementptr inbounds nuw i8, ptr %0, i64 912
  %5 = load ptr, ptr %4, align 8, !tbaa !8
  %6 = getelementptr inbounds nuw i8, ptr %5, i64 1560
  %7 = sext i32 %2 to i64
  %8 = getelementptr inbounds nuw [5 x float], ptr %6, i64 0, i64 %7
  %9 = load float, ptr %8, align 4, !tbaa !185
  %10 = fadd float %1, %9
  store float %10, ptr %8, align 4, !tbaa !185
  %11 = getelementptr inbounds nuw i8, ptr %5, i64 1580
  %12 = getelementptr inbounds nuw [5 x i32], ptr %11, i64 0, i64 %7
  %13 = load i32, ptr %12, align 4, !tbaa !4
  %14 = add nsw i32 %13, 1
  store i32 %14, ptr %12, align 4, !tbaa !4
  %15 = getelementptr inbounds nuw i8, ptr %5, i64 1600
  %16 = getelementptr inbounds nuw [5 x float], ptr %15, i64 0, i64 %7
  %17 = load float, ptr %16, align 4, !tbaa !185
  %18 = fcmp ogt float %1, %17
  br i1 %18, label %19, label %20

19:                                               ; preds = %3
  store float %1, ptr %16, align 4, !tbaa !185
  br label %20

20:                                               ; preds = %19, %3
  ret void
}